ccopy_reg
_reconstructor
p0
(cgraph
Graph
p1
c__builtin__
object
p2
Ntp3
Rp4
(dp5
S'nodes'
p6
(dp7
I1
g0
(cgraph
Vertex
p8
g2
Ntp9
Rp10
(dp11
S'adjacents'
p12
(dp13
I16
I1
sI3
I1
sI7
I1
ssS'distance'
p14
I9223372036854775807
sS'predecessor'
p15
NsS'node_id'
p16
I1
sS'visited'
p17
I0
sbsI2
g0
(g8
g2
Ntp18
Rp19
(dp20
g12
(dp21
I4
I1
sI7
I1
sI12
I1
sI13
I1
sI18
I1
sI23
I1
ssg14
I9223372036854775807
sg15
Nsg16
I2
sg17
I0
sbsI3
g0
(g8
g2
Ntp22
Rp23
(dp24
g12
(dp25
I1
I1
sI10
I1
sI11
I1
sI21
I1
sI14
I1
ssg14
I9223372036854775807
sg15
Nsg16
I3
sg17
I0
sbsI4
g0
(g8
g2
Ntp26
Rp27
(dp28
g12
(dp29
I16
I1
sI2
I1
ssg14
I9223372036854775807
sg15
Nsg16
I4
sg17
I0
sbsI5
g0
(g8
g2
Ntp30
Rp31
(dp32
g12
(dp33
I8
I1
sI16
I1
ssg14
I9223372036854775807
sg15
Nsg16
I5
sg17
I0
sbsI6
g0
(g8
g2
Ntp34
Rp35
(dp36
g12
(dp37
I19
I1
sI7
I1
ssg14
I9223372036854775807
sg15
Nsg16
I6
sg17
I0
sbsI7
g0
(g8
g2
Ntp38
Rp39
(dp40
g12
(dp41
I1
I1
sI2
I1
sI6
I1
sI17
I1
sI19
I1
sI21
I1
ssg14
I9223372036854775807
sg15
Nsg16
I7
sg17
I0
sbsI8
g0
(g8
g2
Ntp42
Rp43
(dp44
g12
(dp45
I9
I1
sI5
I1
ssg14
I9223372036854775807
sg15
Nsg16
I8
sg17
I0
sbsI9
g0
(g8
g2
Ntp46
Rp47
(dp48
g12
(dp49
I8
I1
sI16
I1
sI15
I1
ssg14
I9223372036854775807
sg15
Nsg16
I9
sg17
I0
sbsI10
g0
(g8
g2
Ntp50
Rp51
(dp52
g12
(dp53
I11
I1
sI16
I1
sI3
I1
sI12
I1
sI17
I1
ssg14
I9223372036854775807
sg15
Nsg16
I10
sg17
I0
sbsI11
g0
(g8
g2
Ntp54
Rp55
(dp56
g12
(dp57
I10
I1
sI3
I1
ssg14
I9223372036854775807
sg15
Nsg16
I11
sg17
I0
sbsI12
g0
(g8
g2
Ntp58
Rp59
(dp60
g12
(dp61
I10
I1
sI2
I1
sI22
I1
ssg14
I9223372036854775807
sg15
Nsg16
I12
sg17
I0
sbsI13
g0
(g8
g2
Ntp62
Rp63
(dp64
g12
(dp65
I17
I1
sI2
I1
sI19
I1
sI14
I1
ssg14
I9223372036854775807
sg15
Nsg16
I13
sg17
I0
sbsI14
g0
(g8
g2
Ntp66
Rp67
(dp68
g12
(dp69
I3
I1
sI13
I1
ssg14
I9223372036854775807
sg15
Nsg16
I14
sg17
I0
sbsI15
g0
(g8
g2
Ntp70
Rp71
(dp72
g12
(dp73
I9
I1
sI20
I1
ssg14
I9223372036854775807
sg15
Nsg16
I15
sg17
I0
sbsI16
g0
(g8
g2
Ntp74
Rp75
(dp76
g12
(dp77
I1
I1
sI10
I1
sI4
I1
sI5
I1
sI9
I1
ssg14
I9223372036854775807
sg15
Nsg16
I16
sg17
I0
sbsI17
g0
(g8
g2
Ntp78
Rp79
(dp80
g12
(dp81
I10
I1
sI23
I1
sI20
I1
sI13
I1
sI7
I1
ssg14
I9223372036854775807
sg15
Nsg16
I17
sg17
I0
sbsI18
g0
(g8
g2
Ntp82
Rp83
(dp84
g12
(dp85
I2
I1
sI21
I1
ssg14
I9223372036854775807
sg15
Nsg16
I18
sg17
I0
sbsI19
g0
(g8
g2
Ntp86
Rp87
(dp88
g12
(dp89
I13
I1
sI6
I1
sI7
I1
ssg14
I9223372036854775807
sg15
Nsg16
I19
sg17
I0
sbsI20
g0
(g8
g2
Ntp90
Rp91
(dp92
g12
(dp93
I17
I1
sI22
I1
sI15
I1
ssg14
I9223372036854775807
sg15
Nsg16
I20
sg17
I0
sbsI21
g0
(g8
g2
Ntp94
Rp95
(dp96
g12
(dp97
I18
I1
sI3
I1
sI7
I1
ssg14
I9223372036854775807
sg15
Nsg16
I21
sg17
I0
sbsI22
g0
(g8
g2
Ntp98
Rp99
(dp100
g12
(dp101
I12
I1
sI20
I1
ssg14
I9223372036854775807
sg15
Nsg16
I22
sg17
I0
sbsI23
g0
(g8
g2
Ntp102
Rp103
(dp104
g12
(dp105
I17
I1
sI2
I1
ssg14
I9223372036854775807
sg15
Nsg16
I23
sg17
I0
sbssS'num_nodes'
p106
I23
sb.